; Function Attrs: nofree norecurse nosync nounwind memory(read, inaccessiblemem: none) uwtable
define dso_local noundef zeroext i1 @str_is_integer(ptr nocapture noundef readonly %0) local_unnamed_addr #2 {
  %2 = load i8, ptr %0, align 1
  %3 = icmp eq i8 %2, 45
  %spec.select.idx = zext i1 %3 to i64
  %spec.select = getelementptr inbounds i8, ptr %0, i64 %spec.select.idx
  %4 = load i8, ptr %spec.select, align 1
  %.not = icmp eq i8 %4, 0
  br i1 %.not, label %.loopexit, label %.preheader

thread-pre-split:                                 ; preds = %.preheader
  %5 = getelementptr inbounds i8, ptr %.17, i64 1
  %.pr = load i8, ptr %5, align 1
  %.not6 = icmp eq i8 %.pr, 0
  br i1 %.not6, label %.loopexit, label %.preheader

.preheader:                                       ; preds = %1, %thread-pre-split
  %.17 = phi ptr [ %5, %thread-pre-split ], [ %spec.select, %1 ]
  %6 = phi i8 [ %.pr, %thread-pre-split ], [ %4, %1 ]
  %7 = add i8 %6, -48
  %8 = icmp ult i8 %7, 10
  br i1 %8, label %thread-pre-split, label %.loopexit, !llvm.loop !15

.loopexit:                                        ; preds = %thread-pre-split, %.preheader, %1
  %.0 = phi i1 [ false, %1 ], [ %8, %.preheader ], [ %8, %thread-pre-split ]
  ret i1 %.0
}